; Function Attrs: mustprogress uwtable
define dso_local void @_ZN3igl8MshSaver11save_headerEv(ptr noundef nonnull align 8 dereferenceable(536) %0) local_unnamed_addr #0 align 2 {
  %2 = alloca i32, align 4
  %3 = load i8, ptr %0, align 8, !tbaa !4, !range !24, !noundef !25
  %4 = trunc nuw i8 %3 to i1
  %5 = getelementptr inbounds nuw i8, ptr %0, i64 24
  %6 = tail call noundef nonnull align 8 dereferenceable(8) ptr @_ZSt16__ostream_insertIcSt11char_traitsIcEERSt13basic_ostreamIT_T0_ES6_PKS3_l(ptr noundef nonnull align 8 dereferenceable(8) %5, ptr noundef nonnull @.str.2, i64 noundef 11)
  %7 = load ptr, ptr %5, align 8, !tbaa !29
  %8 = getelementptr i8, ptr %7, i64 -24
  %9 = load i64, ptr %8, align 8
  %10 = getelementptr inbounds i8, ptr %5, i64 %9
  %11 = getelementptr inbounds nuw i8, ptr %10, i64 240
  %12 = load ptr, ptr %11, align 8, !tbaa !40
  %.not.i.i.i11 = icmp eq ptr %12, null
  br i1 %4, label %73, label %13

13:                                               ; preds = %1
  br i1 %.not.i.i.i11, label %14, label %_ZSt13__check_facetISt5ctypeIcEERKT_PS3_.exit.i.i

14:                                               ; preds = %13
  tail call void @_ZSt16__throw_bad_castv() #14
  unreachable

_ZSt13__check_facetISt5ctypeIcEERKT_PS3_.exit.i.i: ; preds = %13
  %15 = getelementptr inbounds nuw i8, ptr %12, i64 56
  %16 = load i8, ptr %15, align 8, !tbaa !47
  %.not.i1.i.i = icmp eq i8 %16, 0
  br i1 %.not.i1.i.i, label %20, label %17

17:                                               ; preds = %_ZSt13__check_facetISt5ctypeIcEERKT_PS3_.exit.i.i
  %18 = getelementptr inbounds nuw i8, ptr %12, i64 67
  %19 = load i8, ptr %18, align 1, !tbaa !39
  br label %_ZSt4endlIcSt11char_traitsIcEERSt13basic_ostreamIT_T0_ES6_.exit

20:                                               ; preds = %_ZSt13__check_facetISt5ctypeIcEERKT_PS3_.exit.i.i
  tail call void @_ZNKSt5ctypeIcE13_M_widen_initEv(ptr noundef nonnull align 8 dereferenceable(570) %12)
  %21 = load ptr, ptr %12, align 8, !tbaa !29
  %22 = getelementptr inbounds nuw i8, ptr %21, i64 48
  %23 = load ptr, ptr %22, align 8
  %24 = tail call noundef signext i8 %23(ptr noundef nonnull align 8 dereferenceable(570) %12, i8 noundef signext 10)
  br label %_ZSt4endlIcSt11char_traitsIcEERSt13basic_ostreamIT_T0_ES6_.exit

_ZSt4endlIcSt11char_traitsIcEERSt13basic_ostreamIT_T0_ES6_.exit: ; preds = %17, %20
  %.0.i.i.i = phi i8 [ %19, %17 ], [ %24, %20 ]
  %25 = tail call noundef nonnull align 8 dereferenceable(8) ptr @_ZNSo3putEc(ptr noundef nonnull align 8 dereferenceable(8) %5, i8 noundef signext %.0.i.i.i)
  %26 = tail call noundef nonnull align 8 dereferenceable(8) ptr @_ZNSo5flushEv(ptr noundef nonnull align 8 dereferenceable(8) %25)
  %27 = tail call noundef nonnull align 8 dereferenceable(8) ptr @_ZSt16__ostream_insertIcSt11char_traitsIcEERSt13basic_ostreamIT_T0_ES6_PKS3_l(ptr noundef nonnull align 8 dereferenceable(8) %5, ptr noundef nonnull @.str.3, i64 noundef 6)
  %28 = tail call noundef nonnull align 8 dereferenceable(8) ptr @_ZNSo9_M_insertImEERSoT_(ptr noundef nonnull align 8 dereferenceable(8) %5, i64 noundef 8)
  %29 = load ptr, ptr %28, align 8, !tbaa !29
  %30 = getelementptr i8, ptr %29, i64 -24
  %31 = load i64, ptr %30, align 8
  %32 = getelementptr inbounds i8, ptr %28, i64 %31
  %33 = getelementptr inbounds nuw i8, ptr %32, i64 240
  %34 = load ptr, ptr %33, align 8, !tbaa !40
  %.not.i.i.i1 = icmp eq ptr %34, null
  br i1 %.not.i.i.i1, label %35, label %_ZSt13__check_facetISt5ctypeIcEERKT_PS3_.exit.i.i2

35:                                               ; preds = %_ZSt4endlIcSt11char_traitsIcEERSt13basic_ostreamIT_T0_ES6_.exit
  tail call void @_ZSt16__throw_bad_castv() #14
  unreachable

_ZSt13__check_facetISt5ctypeIcEERKT_PS3_.exit.i.i2: ; preds = %_ZSt4endlIcSt11char_traitsIcEERSt13basic_ostreamIT_T0_ES6_.exit
  %36 = getelementptr inbounds nuw i8, ptr %34, i64 56
  %37 = load i8, ptr %36, align 8, !tbaa !47
  %.not.i1.i.i3 = icmp eq i8 %37, 0
  br i1 %.not.i1.i.i3, label %41, label %38

38:                                               ; preds = %_ZSt13__check_facetISt5ctypeIcEERKT_PS3_.exit.i.i2
  %39 = getelementptr inbounds nuw i8, ptr %34, i64 67
  %40 = load i8, ptr %39, align 1, !tbaa !39
  br label %_ZSt4endlIcSt11char_traitsIcEERSt13basic_ostreamIT_T0_ES6_.exit5

41:                                               ; preds = %_ZSt13__check_facetISt5ctypeIcEERKT_PS3_.exit.i.i2
  tail call void @_ZNKSt5ctypeIcE13_M_widen_initEv(ptr noundef nonnull align 8 dereferenceable(570) %34)
  %42 = load ptr, ptr %34, align 8, !tbaa !29
  %43 = getelementptr inbounds nuw i8, ptr %42, i64 48
  %44 = load ptr, ptr %43, align 8
  %45 = tail call noundef signext i8 %44(ptr noundef nonnull align 8 dereferenceable(570) %34, i8 noundef signext 10)
  br label %_ZSt4endlIcSt11char_traitsIcEERSt13basic_ostreamIT_T0_ES6_.exit5

_ZSt4endlIcSt11char_traitsIcEERSt13basic_ostreamIT_T0_ES6_.exit5: ; preds = %38, %41
  %.0.i.i.i4 = phi i8 [ %40, %38 ], [ %45, %41 ]
  %46 = tail call noundef nonnull align 8 dereferenceable(8) ptr @_ZNSo3putEc(ptr noundef nonnull align 8 dereferenceable(8) %28, i8 noundef signext %.0.i.i.i4)
  %47 = tail call noundef nonnull align 8 dereferenceable(8) ptr @_ZNSo5flushEv(ptr noundef nonnull align 8 dereferenceable(8) %46)
  %48 = tail call noundef nonnull align 8 dereferenceable(8) ptr @_ZSt16__ostream_insertIcSt11char_traitsIcEERSt13basic_ostreamIT_T0_ES6_PKS3_l(ptr noundef nonnull align 8 dereferenceable(8) %5, ptr noundef nonnull @.str.4, i64 noundef 14)
  %49 = load ptr, ptr %5, align 8, !tbaa !29
  %50 = getelementptr i8, ptr %49, i64 -24
  %51 = load i64, ptr %50, align 8
  %52 = getelementptr inbounds i8, ptr %5, i64 %51
  %53 = getelementptr inbounds nuw i8, ptr %52, i64 240
  %54 = load ptr, ptr %53, align 8, !tbaa !40
  %.not.i.i.i6 = icmp eq ptr %54, null
  br i1 %.not.i.i.i6, label %55, label %_ZSt13__check_facetISt5ctypeIcEERKT_PS3_.exit.i.i7

55:                                               ; preds = %_ZSt4endlIcSt11char_traitsIcEERSt13basic_ostreamIT_T0_ES6_.exit5
  tail call void @_ZSt16__throw_bad_castv() #14
  unreachable

_ZSt13__check_facetISt5ctypeIcEERKT_PS3_.exit.i.i7: ; preds = %_ZSt4endlIcSt11char_traitsIcEERSt13basic_ostreamIT_T0_ES6_.exit5
  %56 = getelementptr inbounds nuw i8, ptr %54, i64 56
  %57 = load i8, ptr %56, align 8, !tbaa !47
  %.not.i1.i.i8 = icmp eq i8 %57, 0
  br i1 %.not.i1.i.i8, label %61, label %58

58:                                               ; preds = %_ZSt13__check_facetISt5ctypeIcEERKT_PS3_.exit.i.i7
  %59 = getelementptr inbounds nuw i8, ptr %54, i64 67
  %60 = load i8, ptr %59, align 1, !tbaa !39
  br label %_ZSt4endlIcSt11char_traitsIcEERSt13basic_ostreamIT_T0_ES6_.exit10

61:                                               ; preds = %_ZSt13__check_facetISt5ctypeIcEERKT_PS3_.exit.i.i7
  tail call void @_ZNKSt5ctypeIcE13_M_widen_initEv(ptr noundef nonnull align 8 dereferenceable(570) %54)
  %62 = load ptr, ptr %54, align 8, !tbaa !29
  %63 = getelementptr inbounds nuw i8, ptr %62, i64 48
  %64 = load ptr, ptr %63, align 8
  %65 = tail call noundef signext i8 %64(ptr noundef nonnull align 8 dereferenceable(570) %54, i8 noundef signext 10)
  br label %_ZSt4endlIcSt11char_traitsIcEERSt13basic_ostreamIT_T0_ES6_.exit10

_ZSt4endlIcSt11char_traitsIcEERSt13basic_ostreamIT_T0_ES6_.exit10: ; preds = %58, %61
  %.0.i.i.i9 = phi i8 [ %60, %58 ], [ %65, %61 ]
  %66 = tail call noundef nonnull align 8 dereferenceable(8) ptr @_ZNSo3putEc(ptr noundef nonnull align 8 dereferenceable(8) %5, i8 noundef signext %.0.i.i.i9)
  %67 = tail call noundef nonnull align 8 dereferenceable(8) ptr @_ZNSo5flushEv(ptr noundef nonnull align 8 dereferenceable(8) %66)
  %68 = load ptr, ptr %5, align 8, !tbaa !29
  %69 = getelementptr i8, ptr %68, i64 -24
  %70 = load i64, ptr %69, align 8
  %71 = getelementptr inbounds i8, ptr %5, i64 %70
  %72 = getelementptr inbounds nuw i8, ptr %71, i64 8
  store i64 17, ptr %72, align 8, !tbaa !53
  br label %129

73:                                               ; preds = %1
  br i1 %.not.i.i.i11, label %74, label %_ZSt13__check_facetISt5ctypeIcEERKT_PS3_.exit.i.i12

74:                                               ; preds = %73
  tail call void @_ZSt16__throw_bad_castv() #14
  unreachable

_ZSt13__check_facetISt5ctypeIcEERKT_PS3_.exit.i.i12: ; preds = %73
  %75 = getelementptr inbounds nuw i8, ptr %12, i64 56
  %76 = load i8, ptr %75, align 8, !tbaa !47
  %.not.i1.i.i13 = icmp eq i8 %76, 0
  br i1 %.not.i1.i.i13, label %80, label %77

77:                                               ; preds = %_ZSt13__check_facetISt5ctypeIcEERKT_PS3_.exit.i.i12
  %78 = getelementptr inbounds nuw i8, ptr %12, i64 67
  %79 = load i8, ptr %78, align 1, !tbaa !39
  br label %_ZSt4endlIcSt11char_traitsIcEERSt13basic_ostreamIT_T0_ES6_.exit15

80:                                               ; preds = %_ZSt13__check_facetISt5ctypeIcEERKT_PS3_.exit.i.i12
  tail call void @_ZNKSt5ctypeIcE13_M_widen_initEv(ptr noundef nonnull align 8 dereferenceable(570) %12)
  %81 = load ptr, ptr %12, align 8, !tbaa !29
  %82 = getelementptr inbounds nuw i8, ptr %81, i64 48
  %83 = load ptr, ptr %82, align 8
  %84 = tail call noundef signext i8 %83(ptr noundef nonnull align 8 dereferenceable(570) %12, i8 noundef signext 10)
  br label %_ZSt4endlIcSt11char_traitsIcEERSt13basic_ostreamIT_T0_ES6_.exit15

_ZSt4endlIcSt11char_traitsIcEERSt13basic_ostreamIT_T0_ES6_.exit15: ; preds = %77, %80
  %.0.i.i.i14 = phi i8 [ %79, %77 ], [ %84, %80 ]
  %85 = tail call noundef nonnull align 8 dereferenceable(8) ptr @_ZNSo3putEc(ptr noundef nonnull align 8 dereferenceable(8) %5, i8 noundef signext %.0.i.i.i14)
  %86 = tail call noundef nonnull align 8 dereferenceable(8) ptr @_ZNSo5flushEv(ptr noundef nonnull align 8 dereferenceable(8) %85)
  %87 = tail call noundef nonnull align 8 dereferenceable(8) ptr @_ZSt16__ostream_insertIcSt11char_traitsIcEERSt13basic_ostreamIT_T0_ES6_PKS3_l(ptr noundef nonnull align 8 dereferenceable(8) %5, ptr noundef nonnull @.str.5, i64 noundef 6)
  %88 = tail call noundef nonnull align 8 dereferenceable(8) ptr @_ZNSo9_M_insertImEERSoT_(ptr noundef nonnull align 8 dereferenceable(8) %5, i64 noundef 8)
  %89 = load ptr, ptr %88, align 8, !tbaa !29
  %90 = getelementptr i8, ptr %89, i64 -24
  %91 = load i64, ptr %90, align 8
  %92 = getelementptr inbounds i8, ptr %88, i64 %91
  %93 = getelementptr inbounds nuw i8, ptr %92, i64 240
  %94 = load ptr, ptr %93, align 8, !tbaa !40
  %.not.i.i.i16 = icmp eq ptr %94, null
  br i1 %.not.i.i.i16, label %95, label %_ZSt13__check_facetISt5ctypeIcEERKT_PS3_.exit.i.i17

95:                                               ; preds = %_ZSt4endlIcSt11char_traitsIcEERSt13basic_ostreamIT_T0_ES6_.exit15
  tail call void @_ZSt16__throw_bad_castv() #14
  unreachable

_ZSt13__check_facetISt5ctypeIcEERKT_PS3_.exit.i.i17: ; preds = %_ZSt4endlIcSt11char_traitsIcEERSt13basic_ostreamIT_T0_ES6_.exit15
  %96 = getelementptr inbounds nuw i8, ptr %94, i64 56
  %97 = load i8, ptr %96, align 8, !tbaa !47
  %.not.i1.i.i18 = icmp eq i8 %97, 0
  br i1 %.not.i1.i.i18, label %101, label %98

98:                                               ; preds = %_ZSt13__check_facetISt5ctypeIcEERKT_PS3_.exit.i.i17
  %99 = getelementptr inbounds nuw i8, ptr %94, i64 67
  %100 = load i8, ptr %99, align 1, !tbaa !39
  br label %_ZSt4endlIcSt11char_traitsIcEERSt13basic_ostreamIT_T0_ES6_.exit20

101:                                              ; preds = %_ZSt13__check_facetISt5ctypeIcEERKT_PS3_.exit.i.i17
  tail call void @_ZNKSt5ctypeIcE13_M_widen_initEv(ptr noundef nonnull align 8 dereferenceable(570) %94)
  %102 = load ptr, ptr %94, align 8, !tbaa !29
  %103 = getelementptr inbounds nuw i8, ptr %102, i64 48
  %104 = load ptr, ptr %103, align 8
  %105 = tail call noundef signext i8 %104(ptr noundef nonnull align 8 dereferenceable(570) %94, i8 noundef signext 10)
  br label %_ZSt4endlIcSt11char_traitsIcEERSt13basic_ostreamIT_T0_ES6_.exit20

_ZSt4endlIcSt11char_traitsIcEERSt13basic_ostreamIT_T0_ES6_.exit20: ; preds = %98, %101
  %.0.i.i.i19 = phi i8 [ %100, %98 ], [ %105, %101 ]
  %106 = tail call noundef nonnull align 8 dereferenceable(8) ptr @_ZNSo3putEc(ptr noundef nonnull align 8 dereferenceable(8) %88, i8 noundef signext %.0.i.i.i19)
  %107 = tail call noundef nonnull align 8 dereferenceable(8) ptr @_ZNSo5flushEv(ptr noundef nonnull align 8 dereferenceable(8) %106)
  call void @llvm.lifetime.start.p0(i64 4, ptr nonnull %2) #13
  store i32 1, ptr %2, align 4, !tbaa !54
  %108 = call noundef nonnull align 8 dereferenceable(8) ptr @_ZNSo5writeEPKcl(ptr noundef nonnull align 8 dereferenceable(8) %5, ptr noundef nonnull %2, i64 noundef 4)
  %109 = call noundef nonnull align 8 dereferenceable(8) ptr @_ZSt16__ostream_insertIcSt11char_traitsIcEERSt13basic_ostreamIT_T0_ES6_PKS3_l(ptr noundef nonnull align 8 dereferenceable(8) %5, ptr noundef nonnull @.str.6, i64 noundef 15)
  %110 = load ptr, ptr %5, align 8, !tbaa !29
  %111 = getelementptr i8, ptr %110, i64 -24
  %112 = load i64, ptr %111, align 8
  %113 = getelementptr inbounds i8, ptr %5, i64 %112
  %114 = getelementptr inbounds nuw i8, ptr %113, i64 240
  %115 = load ptr, ptr %114, align 8, !tbaa !40
  %.not.i.i.i21 = icmp eq ptr %115, null
  br i1 %.not.i.i.i21, label %116, label %_ZSt13__check_facetISt5ctypeIcEERKT_PS3_.exit.i.i22

116:                                              ; preds = %_ZSt4endlIcSt11char_traitsIcEERSt13basic_ostreamIT_T0_ES6_.exit20
  call void @_ZSt16__throw_bad_castv() #14
  unreachable

_ZSt13__check_facetISt5ctypeIcEERKT_PS3_.exit.i.i22: ; preds = %_ZSt4endlIcSt11char_traitsIcEERSt13basic_ostreamIT_T0_ES6_.exit20
  %117 = getelementptr inbounds nuw i8, ptr %115, i64 56
  %118 = load i8, ptr %117, align 8, !tbaa !47
  %.not.i1.i.i23 = icmp eq i8 %118, 0
  br i1 %.not.i1.i.i23, label %122, label %119

119:                                              ; preds = %_ZSt13__check_facetISt5ctypeIcEERKT_PS3_.exit.i.i22
  %120 = getelementptr inbounds nuw i8, ptr %115, i64 67
  %121 = load i8, ptr %120, align 1, !tbaa !39
  br label %_ZSt4endlIcSt11char_traitsIcEERSt13basic_ostreamIT_T0_ES6_.exit25

122:                                              ; preds = %_ZSt13__check_facetISt5ctypeIcEERKT_PS3_.exit.i.i22
  call void @_ZNKSt5ctypeIcE13_M_widen_initEv(ptr noundef nonnull align 8 dereferenceable(570) %115)
  %123 = load ptr, ptr %115, align 8, !tbaa !29
  %124 = getelementptr inbounds nuw i8, ptr %123, i64 48
  %125 = load ptr, ptr %124, align 8
  %126 = call noundef signext i8 %125(ptr noundef nonnull align 8 dereferenceable(570) %115, i8 noundef signext 10)
  br label %_ZSt4endlIcSt11char_traitsIcEERSt13basic_ostreamIT_T0_ES6_.exit25

_ZSt4endlIcSt11char_traitsIcEERSt13basic_ostreamIT_T0_ES6_.exit25: ; preds = %119, %122
  %.0.i.i.i24 = phi i8 [ %121, %119 ], [ %126, %122 ]
  %127 = call noundef nonnull align 8 dereferenceable(8) ptr @_ZNSo3putEc(ptr noundef nonnull align 8 dereferenceable(8) %5, i8 noundef signext %.0.i.i.i24)
  %128 = call noundef nonnull align 8 dereferenceable(8) ptr @_ZNSo5flushEv(ptr noundef nonnull align 8 dereferenceable(8) %127)
  call void @llvm.lifetime.end.p0(i64 4, ptr nonnull %2) #13
  br label %129

129:                                              ; preds = %_ZSt4endlIcSt11char_traitsIcEERSt13basic_ostreamIT_T0_ES6_.exit25, %_ZSt4endlIcSt11char_traitsIcEERSt13basic_ostreamIT_T0_ES6_.exit10
  %130 = getelementptr inbounds nuw i8, ptr %0, i64 24
  %131 = call noundef nonnull align 8 dereferenceable(8) ptr @_ZNSo5flushEv(ptr noundef nonnull align 8 dereferenceable(8) %130)
  ret void
}